; ModuleID = '19/2403.c'
source_filename = "19/2403.c"
target datalayout = "e-m:e-p270:32:32-p271:32:32-p272:64:64-i64:64-f80:128-n8:16:32:64-S128"
target triple = "x86_64-pc-linux-gnu"

@.str = private unnamed_addr constant [4 x i8] c"%s \00", align 1
@.str.1 = private unnamed_addr constant [4 x i8] c"%s\0A\00", align 1

; Function Attrs: noinline nounwind uwtable
define dso_local i32 @main() #0 {
  %1 = alloca i32, align 4
  %2 = alloca [200 x i8], align 16
  %3 = alloca [200 x i8], align 16
  %4 = alloca [200 x i8], align 16
  %5 = alloca [200 x i8], align 16
  %6 = alloca i32, align 4
  %7 = alloca i32, align 4
  %8 = alloca i32, align 4
  store i32 0, i32* %1, align 4
  %9 = getelementptr inbounds [200 x i8], [200 x i8]* %2, i64 0, i64 0
  %10 = call i32 (i8*, ...) bitcast (i32 (...)* @gets to i32 (i8*, ...)*)(i8* %9)
  %11 = getelementptr inbounds [200 x i8], [200 x i8]* %3, i64 0, i64 0
  %12 = call i32 (i8*, ...) bitcast (i32 (...)* @gets to i32 (i8*, ...)*)(i8* %11)
  %13 = getelementptr inbounds [200 x i8], [200 x i8]* %4, i64 0, i64 0
  %14 = call i32 (i8*, ...) bitcast (i32 (...)* @gets to i32 (i8*, ...)*)(i8* %13)
  %15 = getelementptr inbounds [200 x i8], [200 x i8]* %2, i64 0, i64 0
  %16 = call i64 @strlen(i8* %15) #3
  %17 = trunc i64 %16 to i32
  store i32 %17, i32* %6, align 4
  store i32 0, i32* %8, align 4
  store i32 0, i32* %7, align 4
  br label %18

18:                                               ; preds = %75, %0
  %19 = load i32, i32* %7, align 4
  %20 = load i32, i32* %6, align 4
  %21 = icmp slt i32 %19, %20
  br i1 %21, label %22, label %78

22:                                               ; preds = %18
  %23 = load i32, i32* %7, align 4
  %24 = sext i32 %23 to i64
  %25 = getelementptr inbounds [200 x i8], [200 x i8]* %2, i64 0, i64 %24
  %26 = load i8, i8* %25, align 1
  %27 = sext i8 %26 to i32
  %28 = icmp ne i32 %27, 32
  br i1 %28, label %29, label %39

29:                                               ; preds = %22
  %30 = load i32, i32* %7, align 4
  %31 = sext i32 %30 to i64
  %32 = getelementptr inbounds [200 x i8], [200 x i8]* %2, i64 0, i64 %31
  %33 = load i8, i8* %32, align 1
  %34 = load i32, i32* %8, align 4
  %35 = sext i32 %34 to i64
  %36 = getelementptr inbounds [200 x i8], [200 x i8]* %5, i64 0, i64 %35
  store i8 %33, i8* %36, align 1
  %37 = load i32, i32* %8, align 4
  %38 = add nsw i32 %37, 1
  store i32 %38, i32* %8, align 4
  br label %54

39:                                               ; preds = %22
  %40 = load i32, i32* %8, align 4
  %41 = sext i32 %40 to i64
  %42 = getelementptr inbounds [200 x i8], [200 x i8]* %5, i64 0, i64 %41
  store i8 0, i8* %42, align 1
  %43 = getelementptr inbounds [200 x i8], [200 x i8]* %5, i64 0, i64 0
  %44 = getelementptr inbounds [200 x i8], [200 x i8]* %3, i64 0, i64 0
  %45 = call i32 @strcmp(i8* %43, i8* %44) #3
  %46 = icmp eq i32 %45, 0
  br i1 %46, label %47, label %50

47:                                               ; preds = %39
  %48 = getelementptr inbounds [200 x i8], [200 x i8]* %4, i64 0, i64 0
  %49 = call i32 (i8*, ...) @printf(i8* getelementptr inbounds ([4 x i8], [4 x i8]* @.str, i64 0, i64 0), i8* %48)
  br label %53

50:                                               ; preds = %39
  %51 = getelementptr inbounds [200 x i8], [200 x i8]* %5, i64 0, i64 0
  %52 = call i32 (i8*, ...) @printf(i8* getelementptr inbounds ([4 x i8], [4 x i8]* @.str, i64 0, i64 0), i8* %51)
  br label %53

53:                                               ; preds = %50, %47
  store i32 0, i32* %8, align 4
  br label %54

54:                                               ; preds = %53, %29
  %55 = load i32, i32* %7, align 4
  %56 = load i32, i32* %6, align 4
  %57 = sub nsw i32 %56, 1
  %58 = icmp eq i32 %55, %57
  br i1 %58, label %59, label %74

59:                                               ; preds = %54
  %60 = load i32, i32* %8, align 4
  %61 = sext i32 %60 to i64
  %62 = getelementptr inbounds [200 x i8], [200 x i8]* %5, i64 0, i64 %61
  store i8 0, i8* %62, align 1
  %63 = getelementptr inbounds [200 x i8], [200 x i8]* %5, i64 0, i64 0
  %64 = getelementptr inbounds [200 x i8], [200 x i8]* %3, i64 0, i64 0
  %65 = call i32 @strcmp(i8* %63, i8* %64) #3
  %66 = icmp eq i32 %65, 0
  br i1 %66, label %67, label %70

67:                                               ; preds = %59
  %68 = getelementptr inbounds [200 x i8], [200 x i8]* %4, i64 0, i64 0
  %69 = call i32 (i8*, ...) @printf(i8* getelementptr inbounds ([4 x i8], [4 x i8]* @.str.1, i64 0, i64 0), i8* %68)
  br label %73

70:                                               ; preds = %59
  %71 = getelementptr inbounds [200 x i8], [200 x i8]* %5, i64 0, i64 0
  %72 = call i32 (i8*, ...) @printf(i8* getelementptr inbounds ([4 x i8], [4 x i8]* @.str.1, i64 0, i64 0), i8* %71)
  br label %73

73:                                               ; preds = %70, %67
  store i32 0, i32* %8, align 4
  br label %74

74:                                               ; preds = %73, %54
  br label %75

75:                                               ; preds = %74
  %76 = load i32, i32* %7, align 4
  %77 = add nsw i32 %76, 1
  store i32 %77, i32* %7, align 4
  br label %18

78:                                               ; preds = %18
  %79 = load i32, i32* %1, align 4
  ret i32 %79
}

declare dso_local i32 @gets(...) #1

; Function Attrs: nounwind readonly
declare dso_local i64 @strlen(i8*) #2

; Function Attrs: nounwind readonly
declare dso_local i32 @strcmp(i8*, i8*) #2

declare dso_local i32 @printf(i8*, ...) #1


!llvm.module.flags = !{!0}
!llvm.ident = !{!1}

!0 = !{i32 1, !"wchar_size", i32 4}
!1 = !{!"clang version 10.0.0-4ubuntu1 "}
