; ModuleID = 'source-C-CXX/18/2403.c'
source_filename = "source-C-CXX/18/2403.c"
target datalayout = "e-m:e-p270:32:32-p271:32:32-p272:64:64-i64:64-f80:128-n8:16:32:64-S128"
target triple = "x86_64-pc-linux-gnu"

@.str = private unnamed_addr constant [4 x i8] c"%s \00", align 1

; Function Attrs: nounwind sspstrong uwtable
define dso_local i32 @main() local_unnamed_addr #0 {
  %1 = alloca [200 x i8], align 16
  %2 = alloca [200 x i8], align 16
  %3 = alloca [200 x i8], align 16
  %4 = alloca [200 x i8], align 16
  %5 = getelementptr inbounds [200 x i8], [200 x i8]* %1, i64 0, i64 0
  call void @llvm.lifetime.start.p0i8(i64 200, i8* nonnull %5) #6
  %6 = getelementptr inbounds [200 x i8], [200 x i8]* %2, i64 0, i64 0
  call void @llvm.lifetime.start.p0i8(i64 200, i8* nonnull %6) #6
  %7 = getelementptr inbounds [200 x i8], [200 x i8]* %3, i64 0, i64 0
  call void @llvm.lifetime.start.p0i8(i64 200, i8* nonnull %7) #6
  %8 = getelementptr inbounds [200 x i8], [200 x i8]* %4, i64 0, i64 0
  call void @llvm.lifetime.start.p0i8(i64 200, i8* nonnull %8) #6
  %9 = call i32 (i8*, ...) bitcast (i32 (...)* @gets to i32 (i8*, ...)*)(i8* nonnull %5) #6
  %10 = call i32 (i8*, ...) bitcast (i32 (...)* @gets to i32 (i8*, ...)*)(i8* nonnull %6) #6
  %11 = call i32 (i8*, ...) bitcast (i32 (...)* @gets to i32 (i8*, ...)*)(i8* nonnull %7) #6
  %12 = call i64 @strlen(i8* noundef nonnull %5) #7
  %13 = trunc i64 %12 to i32
  %14 = icmp sgt i32 %13, 0
  br i1 %14, label %15, label %50

15:                                               ; preds = %0
  %16 = add i64 %12, 4294967295
  %17 = and i64 %16, 4294967295
  %18 = and i64 %12, 4294967295
  br label %19

19:                                               ; preds = %15, %46
  %20 = phi i64 [ 0, %15 ], [ %48, %46 ]
  %21 = phi i32 [ 0, %15 ], [ %47, %46 ]
  %22 = getelementptr inbounds [200 x i8], [200 x i8]* %1, i64 0, i64 %20
  %23 = load i8, i8* %22, align 1, !tbaa !5
  %24 = icmp eq i8 %23, 32
  %25 = sext i32 %21 to i64
  %26 = getelementptr inbounds [200 x i8], [200 x i8]* %4, i64 0, i64 %25
  br i1 %24, label %29, label %27

27:                                               ; preds = %19
  store i8 %23, i8* %26, align 1, !tbaa !5
  %28 = add nsw i32 %21, 1
  br label %36

29:                                               ; preds = %19
  store i8 0, i8* %26, align 1, !tbaa !5
  %30 = call i32 @strcmp(i8* noundef nonnull %8, i8* noundef nonnull %6) #7
  %31 = icmp eq i32 %30, 0
  br i1 %31, label %32, label %34

32:                                               ; preds = %29
  %33 = call i32 (i8*, ...) @printf(i8* nonnull dereferenceable(1) getelementptr inbounds ([4 x i8], [4 x i8]* @.str, i64 0, i64 0), i8* nonnull %7)
  br label %36

34:                                               ; preds = %29
  %35 = call i32 (i8*, ...) @printf(i8* nonnull dereferenceable(1) getelementptr inbounds ([4 x i8], [4 x i8]* @.str, i64 0, i64 0), i8* nonnull %8)
  br label %36

36:                                               ; preds = %32, %34, %27
  %37 = phi i32 [ %28, %27 ], [ 0, %34 ], [ 0, %32 ]
  %38 = icmp eq i64 %20, %17
  br i1 %38, label %39, label %46

39:                                               ; preds = %36
  %40 = sext i32 %37 to i64
  %41 = getelementptr inbounds [200 x i8], [200 x i8]* %4, i64 0, i64 %40
  store i8 0, i8* %41, align 1, !tbaa !5
  %42 = call i32 @strcmp(i8* noundef nonnull %8, i8* noundef nonnull %6) #7
  %43 = icmp eq i32 %42, 0
  %44 = select i1 %43, i8* %7, i8* %8
  %45 = call i32 @puts(i8* nonnull %44)
  br label %46

46:                                               ; preds = %39, %36
  %47 = phi i32 [ %37, %36 ], [ 0, %39 ]
  %48 = add nuw nsw i64 %20, 1
  %49 = icmp eq i64 %48, %18
  br i1 %49, label %50, label %19, !llvm.loop !8

50:                                               ; preds = %46, %0
  call void @llvm.lifetime.end.p0i8(i64 200, i8* nonnull %8) #6
  call void @llvm.lifetime.end.p0i8(i64 200, i8* nonnull %7) #6
  call void @llvm.lifetime.end.p0i8(i64 200, i8* nonnull %6) #6
  call void @llvm.lifetime.end.p0i8(i64 200, i8* nonnull %5) #6
  ret i32 0
}

; Function Attrs: argmemonly mustprogress nofree nosync nounwind willreturn
declare void @llvm.lifetime.start.p0i8(i64 immarg, i8* nocapture) #1

declare i32 @gets(...) local_unnamed_addr #2

; Function Attrs: argmemonly mustprogress nofree nounwind readonly willreturn
declare i64 @strlen(i8* nocapture) local_unnamed_addr #3

; Function Attrs: argmemonly mustprogress nofree nounwind readonly willreturn
declare i32 @strcmp(i8* nocapture, i8* nocapture) local_unnamed_addr #3

; Function Attrs: nofree nounwind
declare noundef i32 @printf(i8* nocapture noundef readonly, ...) local_unnamed_addr #4

; Function Attrs: argmemonly mustprogress nofree nosync nounwind willreturn
declare void @llvm.lifetime.end.p0i8(i64 immarg, i8* nocapture) #1

; Function Attrs: nofree nounwind
declare noundef i32 @puts(i8* nocapture noundef readonly) local_unnamed_addr #5


!llvm.module.flags = !{!0, !1, !2, !3}
!llvm.ident = !{!4}

!0 = !{i32 1, !"wchar_size", i32 4}
!1 = !{i32 7, !"PIC Level", i32 2}
!2 = !{i32 7, !"PIE Level", i32 2}
!3 = !{i32 7, !"uwtable", i32 1}
!4 = !{!"clang version 13.0.0"}
!5 = !{!6, !6, i64 0}
!6 = !{!"omnipotent char", !7, i64 0}
!7 = !{!"Simple C/C++ TBAA"}
!8 = distinct !{!8, !9}
!9 = !{!"llvm.loop.mustprogress"}
